Certificate:
    Data:
        Version: 3 (0x2)
        Serial Number: 1 (0x1)
        Signature Algorithm: md5WithRSAEncryption
        Issuer: C=US, ST=CA, L=Rocklin, O=Frank4DD, OU=Certification Authority for susie, CN=susie/emailAddress=ca@susie
        Validity
            Not Before: Dec 27 05:20:56 2004 GMT
            Not After : Dec 26 05:20:56 2008 GMT
        Subject: C=US, ST=CA, L=Rocklin, O=Frank4DD, OU=Web Support, CN=guest/emailAddress=support@frank4dd.com
        Subject Public Key Info:
            Public Key Algorithm: rsaEncryption
            RSA Public Key: (1024 bit)
                Modulus (1024 bit):
                    00:c6:6e:6b:be:09:e5:dc:43:4e:22:94:f7:b7:2c:
                    68:77:8c:2c:69:20:44:b8:dd:5a:8f:51:7f:98:33:
                    3c:06:79:7e:3a:40:b5:9b:f3:72:e4:96:8c:8c:e5:
                    49:32:02:9c:43:24:f2:cf:81:dc:4f:6c:09:1d:3d:
                    9c:06:d9:a2:3d:f6:71:9c:62:ca:b4:a4:77:9e:92:
                    e9:75:9e:23:9d:b5:34:73:33:69:c9:2b:78:46:2a:
                    4d:ae:79:a1:24:c1:10:96:5b:19:7a:77:b9:35:c3:
                    40:70:30:65:d1:55:c1:bb:c5:a4:22:6d:e9:eb:18:
                    94:a9:d2:02:c6:f9:d8:e4:1f
                Exponent: 65537 (0x10001)
        X509v3 extensions:
            Netscape Cert Type: 
                SSL Client
            X509v3 Key Usage: 
                Digital Signature, Non Repudiation, Key Encipherment
            Netscape Comment: 
                OpenSSL Generated Certificate
            X509v3 Subject Key Identifier: 
                CD:3B:D3:88:ED:E7:57:F9:7E:F0:DE:05:99:8B:2A:A2:3D:8B:BB:31
            X509v3 Authority Key Identifier: 
                keyid:21:62:A5:6D:06:96:E0:17:5F:34:3C:E1:62:2B:4E:C5:CB:7A:23:81
                DirName:/C=US/ST=CA/L=Rocklin/O=Frank4DD/OU=Certification Authority for susie/CN=susie/emailAddress=ca@susie
                serial:00

            X509v3 Subject Alternative Name: 
                email:support@frank4dd.com
            X509v3 Issuer Alternative Name: 
                <EMPTY>

    Signature Algorithm: md5WithRSAEncryption
        3a:6d:25:a2:cb:ef:ca:65:4d:17:0d:75:00:65:d8:65:c2:26:
        3b:6f:4b:51:a2:e8:88:15:f7:45:00:d8:bf:d6:f6:a1:bd:11:
        1c:17:1e:d6:68:83:ac:7b:a3:e7:5c:36:b4:df:5b:08:13:17:
        44:51:c5:20:ab:51:a4:fc:4e:c9:1b:6b:9f:44:bc:4e:04:99:
        38:74:f3:73:89:0f:c2:59:72:fd:fd:ae:34:ce:c0:9b:59:b4:
        83:27:44:db:8c:0c:ea:3c:4a:5b:8e:ad:a4:2f:06:e8:c2:f4:
        78:e5:2d:63:1f:9f:b1:c2:13:53:09:6b:29:19:0f:96:76:cb:
        9c:96
-----BEGIN CERTIFICATE-----
MIID+TCCA2KgAwIBAgIBATANBgkqhkiG9w0BAQQFADCBlDELMAkGA1UEBhMCVVMx
CzAJBgNVBAgTAkNBMRAwDgYDVQQHEwdSb2NrbGluMREwDwYDVQQKEwhGcmFuazRE
RDEqMCgGA1UECxMhQ2VydGlmaWNhdGlvbiBBdXRob3JpdHkgZm9yIHN1c2llMQ4w
DAYDVQQDEwVzdXNpZTEXMBUGCSqGSIb3DQEJARYIY2FAc3VzaWUwHhcNMDQxMjI3
MDUyMDU2WhcNMDgxMjI2MDUyMDU2WjCBijELMAkGA1UEBhMCVVMxCzAJBgNVBAgT
AkNBMRAwDgYDVQQHEwdSb2NrbGluMREwDwYDVQQKEwhGcmFuazRERDEUMBIGA1UE
CxMLV2ViIFN1cHBvcnQxDjAMBgNVBAMTBWd1ZXN0MSMwIQYJKoZIhvcNAQkBFhRz
dXBwb3J0QGZyYW5rNGRkLmNvbTCBnzANBgkqhkiG9w0BAQEFAAOBjQAwgYkCgYEA
xm5rvgnl3ENOIpT3tyxod4wsaSBEuN1aj1F/mDM8Bnl+OkC1m/Ny5JaMjOVJMgKc
QyTyz4HcT2wJHT2cBtmiPfZxnGLKtKR3npLpdZ4jnbU0czNpySt4RipNrnmhJMEQ
llsZene5NcNAcDBl0VXBu8WkIm3p6xiUqdICxvnY5B8CAwEAAaOCAWEwggFdMBEG
CWCGSAGG+EIBAQQEAwIHgDALBgNVHQ8EBAMCBeAwLAYJYIZIAYb4QgENBB8WHU9w
ZW5TU0wgR2VuZXJhdGVkIENlcnRpZmljYXRlMB0GA1UdDgQWBBTNO9OI7edX+X7w
3gWZiyqiPYu7MTCBwQYDVR0jBIG5MIG2gBQhYqVtBpbgF180POFiK07Fy3ojgaGB
mqSBlzCBlDELMAkGA1UEBhMCVVMxCzAJBgNVBAgTAkNBMRAwDgYDVQQHEwdSb2Nr
bGluMREwDwYDVQQKEwhGcmFuazRERDEqMCgGA1UECxMhQ2VydGlmaWNhdGlvbiBB
dXRob3JpdHkgZm9yIHN1c2llMQ4wDAYDVQQDEwVzdXNpZTEXMBUGCSqGSIb3DQEJ
ARYIY2FAc3VzaWWCAQAwHwYDVR0RBBgwFoEUc3VwcG9ydEBmcmFuazRkZC5jb20w
CQYDVR0SBAIwADANBgkqhkiG9w0BAQQFAAOBgQA6bSWiy+/KZU0XDXUAZdhlwiY7
b0tRouiIFfdFANi/1vahvREcFx7WaIOse6PnXDa031sIExdEUcUgq1Gk/E7JG2uf
RLxOBJk4dPNziQ/CWXL9/a40zsCbWbSDJ0TbjAzqPEpbjq2kLwbowvR45S1jH5+x
whNTCWspGQ+Wdsuclg==
-----END CERTIFICATE-----
